; Function Attrs: mustprogress uwtable
define void @_ZN4base28PersistentHistogramAllocator27RecordCreateHistogramResultENS0_25CreateHistogramResultTypeE(i32 noundef %0) local_unnamed_addr #0 align 2 {
  %2 = load atomic volatile i64, ptr @_ZZN4base28PersistentHistogramAllocator33GetCreateHistogramResultHistogramEvE24atomic_histogram_pointer acquire, align 8
  %3 = inttoptr i64 %2 to ptr
  %.not.i = icmp eq i64 %2, 0
  br i1 %.not.i, label %4, label %_ZN4base28PersistentHistogramAllocator33GetCreateHistogramResultHistogramEv.exit

4:                                                ; preds = %1
  %.b4.i = load i1, ptr @_ZZN4base28PersistentHistogramAllocator33GetCreateHistogramResultHistogramEvE11initialized, align 1
  br i1 %.b4.i, label %_ZN4base28PersistentHistogramAllocator33GetCreateHistogramResultHistogramEv.exit.thread, label %5

5:                                                ; preds = %4
  store i1 true, ptr @_ZZN4base28PersistentHistogramAllocator33GetCreateHistogramResultHistogramEvE11initialized, align 1
  %6 = tail call noundef ptr @_ZN4base15LinearHistogram10FactoryGetEPKciiji(ptr noundef nonnull @_ZN4base12_GLOBAL__N_116kResultHistogramE, i32 noundef 1, i32 noundef 10, i32 noundef 11, i32 noundef 1)
  %7 = ptrtoint ptr %6 to i64
  store atomic volatile i64 %7, ptr @_ZZN4base28PersistentHistogramAllocator33GetCreateHistogramResultHistogramEvE24atomic_histogram_pointer release, align 8
  br label %_ZN4base28PersistentHistogramAllocator33GetCreateHistogramResultHistogramEv.exit

_ZN4base28PersistentHistogramAllocator33GetCreateHistogramResultHistogramEv.exit: ; preds = %1, %5
  %.0.i = phi ptr [ %3, %1 ], [ %6, %5 ]
  %.not = icmp eq ptr %.0.i, null
  br i1 %.not, label %_ZN4base28PersistentHistogramAllocator33GetCreateHistogramResultHistogramEv.exit.thread, label %8

8:                                                ; preds = %_ZN4base28PersistentHistogramAllocator33GetCreateHistogramResultHistogramEv.exit
  %9 = load ptr, ptr %.0.i, align 8, !tbaa !67
  %10 = getelementptr inbounds nuw i8, ptr %9, i64 40
  %11 = load ptr, ptr %10, align 8
  tail call void %11(ptr noundef nonnull align 8 dereferenceable(44) %.0.i, i32 noundef %0)
  br label %_ZN4base28PersistentHistogramAllocator33GetCreateHistogramResultHistogramEv.exit.thread

_ZN4base28PersistentHistogramAllocator33GetCreateHistogramResultHistogramEv.exit.thread: ; preds = %4, %8, %_ZN4base28PersistentHistogramAllocator33GetCreateHistogramResultHistogramEv.exit
  ret void
}